; Function Attrs: null_pointer_is_valid sspstrong uwtable
define internal fastcc void @tls_export_client_randoms_func(ptr noundef readonly captures(none) %0, ptr noundef nonnull readonly captures(none) %1, ptr noundef %2, ptr noundef %3) unnamed_addr #0 {
  %5 = tail call ptr @g_string_append(ptr noundef %2, ptr noundef %3)
  %6 = getelementptr inbounds nuw i8, ptr %0, i64 8
  %7 = load i32, ptr %6, align 8
  %.not = icmp eq i32 %7, 0
  br i1 %.not, label %._crit_edge, label %.lr.ph

.lr.ph:                                           ; preds = %4, %.lr.ph
  %indvars.iv = phi i64 [ %indvars.iv.next, %.lr.ph ], [ 0, %4 ]
  %8 = load ptr, ptr %0, align 8
  %9 = getelementptr i8, ptr %8, i64 %indvars.iv
  %10 = load i8, ptr %9, align 1
  %11 = zext i8 %10 to i32
  tail call void (ptr, ptr, ...) @g_string_append_printf(ptr noundef %2, ptr noundef nonnull @.str.9, i32 noundef %11)
  %indvars.iv.next = add nuw nsw i64 %indvars.iv, 1
  %12 = load i32, ptr %6, align 8
  %13 = zext i32 %12 to i64
  %14 = icmp samesign ult i64 %indvars.iv.next, %13
  br i1 %14, label %.lr.ph, label %._crit_edge, !llvm.loop !9

._crit_edge:                                      ; preds = %.lr.ph, %4
  %15 = getelementptr inbounds nuw i8, ptr %2, i64 8
  %16 = load i64, ptr %15, align 8
  %17 = add i64 %16, 1
  %18 = getelementptr inbounds nuw i8, ptr %2, i64 16
  %19 = load i64, ptr %18, align 8
  %20 = icmp ult i64 %17, %19
  br i1 %20, label %21, label %27

21:                                               ; preds = %._crit_edge
  %22 = load ptr, ptr %2, align 8
  store i64 %17, ptr %15, align 8
  %23 = getelementptr i8, ptr %22, i64 %16
  store i8 32, ptr %23, align 1
  %24 = load ptr, ptr %2, align 8
  %25 = load i64, ptr %15, align 8
  %26 = getelementptr i8, ptr %24, i64 %25
  store i8 0, ptr %26, align 1
  br label %g_string_append_c_inline.exit

27:                                               ; preds = %._crit_edge
  %28 = tail call ptr @g_string_insert_c(ptr noundef %2, i64 noundef -1, i8 noundef signext 32)
  br label %g_string_append_c_inline.exit

g_string_append_c_inline.exit:                    ; preds = %21, %27
  %29 = getelementptr inbounds nuw i8, ptr %1, i64 8
  %30 = load i32, ptr %29, align 8
  %.not23 = icmp eq i32 %30, 0
  br i1 %.not23, label %._crit_edge22, label %.lr.ph21

.lr.ph21:                                         ; preds = %g_string_append_c_inline.exit, %.lr.ph21
  %indvars.iv25 = phi i64 [ %indvars.iv.next26, %.lr.ph21 ], [ 0, %g_string_append_c_inline.exit ]
  %31 = load ptr, ptr %1, align 8
  %32 = getelementptr i8, ptr %31, i64 %indvars.iv25
  %33 = load i8, ptr %32, align 1
  %34 = zext i8 %33 to i32
  tail call void (ptr, ptr, ...) @g_string_append_printf(ptr noundef %2, ptr noundef nonnull @.str.9, i32 noundef %34)
  %indvars.iv.next26 = add nuw nsw i64 %indvars.iv25, 1
  %35 = load i32, ptr %29, align 8
  %36 = zext i32 %35 to i64
  %37 = icmp samesign ult i64 %indvars.iv.next26, %36
  br i1 %37, label %.lr.ph21, label %._crit_edge22, !llvm.loop !10

._crit_edge22:                                    ; preds = %.lr.ph21, %g_string_append_c_inline.exit
  %38 = load i64, ptr %15, align 8
  %39 = add i64 %38, 1
  %40 = load i64, ptr %18, align 8
  %41 = icmp ult i64 %39, %40
  br i1 %41, label %42, label %48

42:                                               ; preds = %._crit_edge22
  %43 = load ptr, ptr %2, align 8
  store i64 %39, ptr %15, align 8
  %44 = getelementptr i8, ptr %43, i64 %38
  store i8 10, ptr %44, align 1
  %45 = load ptr, ptr %2, align 8
  %46 = load i64, ptr %15, align 8
  %47 = getelementptr i8, ptr %45, i64 %46
  store i8 0, ptr %47, align 1
  br label %g_string_append_c_inline.exit18

48:                                               ; preds = %._crit_edge22
  %49 = tail call ptr @g_string_insert_c(ptr noundef %2, i64 noundef -1, i8 noundef signext 10)
  br label %g_string_append_c_inline.exit18

g_string_append_c_inline.exit18:                  ; preds = %42, %48
  ret void
}